target datalayout = "e-m:e-p270:32:32-p271:32:32-p272:64:64-i64:64-i128:128-f80:128-n8:16:32:64-S128"
target triple = "x86_64-unknown-linux-gnu"

%struct.QIODNSResolverLookupData = type { ptr, ptr, i64 }

; Function Attrs: nounwind sspstrong uwtable
define dso_local void @qio_dns_resolver_lookup_async(ptr noundef %resolver, ptr noundef %addr, ptr noundef %func, ptr noundef %opaque, ptr noundef %notify) #0 {
entry:
  %resolver.addr = alloca ptr, align 8
  %addr.addr = alloca ptr, align 8
  %func.addr = alloca ptr, align 8
  %opaque.addr = alloca ptr, align 8
  %notify.addr = alloca ptr, align 8
  %task = alloca ptr, align 8
  %data = alloca ptr, align 8
  store ptr %resolver, ptr %resolver.addr, align 8
  store ptr %addr, ptr %addr.addr, align 8
  store ptr %func, ptr %func.addr, align 8
  store ptr %opaque, ptr %opaque.addr, align 8
  store ptr %notify, ptr %notify.addr, align 8
  %call = call noalias ptr @g_malloc0_n(i64 noundef 1, i64 noundef 24) #11
  store ptr %call, ptr %data, align 8
  %0 = load ptr, ptr %addr.addr, align 8
  %call1 = call ptr @qapi_clone(ptr noundef %0, ptr noundef @visit_type_SocketAddress)
  %1 = load ptr, ptr %data, align 8
  %addr2 = getelementptr inbounds %struct.QIODNSResolverLookupData, ptr %1, i32 0, i32 0
  store ptr %call1, ptr %addr2, align 8
  %2 = load ptr, ptr %resolver.addr, align 8
  %3 = load ptr, ptr %func.addr, align 8
  %4 = load ptr, ptr %opaque.addr, align 8
  %5 = load ptr, ptr %notify.addr, align 8
  %call3 = call ptr @qio_task_new(ptr noundef %2, ptr noundef %3, ptr noundef %4, ptr noundef %5)
  store ptr %call3, ptr %task, align 8
  %6 = load ptr, ptr %task, align 8
  %7 = load ptr, ptr %data, align 8
  call void @qio_task_run_in_thread(ptr noundef %6, ptr noundef @qio_dns_resolver_lookup_worker, ptr noundef %7, ptr noundef @qio_dns_resolver_lookup_data_free, ptr noundef null)
  ret void
}