; Function Attrs: nounwind sspstrong uwtable
define dso_local void @qio_dns_resolver_lookup_async(ptr noundef %resolver, ptr noundef %addr, ptr noundef %func, ptr noundef %opaque, ptr noundef %notify) local_unnamed_addr #0 {
entry:
  %call = tail call noalias dereferenceable_or_null(24) ptr @g_malloc0_n(i64 noundef 1, i64 noundef 24) #8
  %call1 = tail call ptr @qapi_clone(ptr noundef %addr, ptr noundef nonnull @visit_type_SocketAddress) #7
  store ptr %call1, ptr %call, align 8
  %call3 = tail call ptr @qio_task_new(ptr noundef %resolver, ptr noundef %func, ptr noundef %opaque, ptr noundef %notify) #7
  tail call void @qio_task_run_in_thread(ptr noundef %call3, ptr noundef nonnull @qio_dns_resolver_lookup_worker, ptr noundef nonnull %call, ptr noundef nonnull @qio_dns_resolver_lookup_data_free, ptr noundef null) #7
  ret void
}